target datalayout = "e-m:e-p270:32:32-p271:32:32-p272:64:64-i64:64-i128:128-f80:128-n8:16:32:64-S128"
target triple = "x86_64-pc-linux-gnu"

@je_opt_thp = external global i32, align 4

; Function Attrs: nounwind uwtable
define hidden void @je_ehooks_default_zero_impl(ptr noundef %0, i64 noundef %1) #0 {
  %3 = alloca ptr, align 8
  %4 = alloca i64, align 8
  %5 = alloca i8, align 1
  store ptr %0, ptr %3, align 8, !tbaa !18
  store i64 %1, ptr %4, align 8, !tbaa !19
  call void @llvm.lifetime.start.p0(i64 1, ptr %5) #8
  store i8 1, ptr %5, align 1, !tbaa !25
  %6 = load i32, ptr @je_opt_thp, align 4, !tbaa !11
  %7 = icmp ne i32 %6, 1
  br i1 %7, label %8, label %13

8:                                                ; preds = %2
  %9 = load ptr, ptr %3, align 8, !tbaa !18
  %10 = load i64, ptr %4, align 8, !tbaa !19
  %11 = call zeroext i1 @je_pages_purge_forced(ptr noundef %9, i64 noundef %10)
  %12 = zext i1 %11 to i8
  store i8 %12, ptr %5, align 1, !tbaa !25
  br label %13

13:                                               ; preds = %8, %2
  %14 = load i8, ptr %5, align 1, !tbaa !25, !range !27, !noundef !28
  %15 = trunc i8 %14 to i1
  br i1 %15, label %16, label %19

16:                                               ; preds = %13
  %17 = load ptr, ptr %3, align 8, !tbaa !18
  %18 = load i64, ptr %4, align 8, !tbaa !19
  call void @llvm.memset.p0.i64(ptr align 1 %17, i8 0, i64 %18, i1 false)
  br label %19

19:                                               ; preds = %16, %13
  call void @llvm.lifetime.end.p0(i64 1, ptr %5) #8
  ret void
}