; Function Attrs: nounwind uwtable
define hidden void @je_ehooks_default_zero_impl(ptr noundef %0, i64 noundef %1) local_unnamed_addr #1 {
  %3 = load i32, ptr @je_opt_thp, align 4, !tbaa !17
  %.not = icmp eq i32 %3, 1
  br i1 %.not, label %.critedge, label %4

4:                                                ; preds = %2
  %5 = tail call zeroext i1 @je_pages_purge_forced(ptr noundef %0, i64 noundef %1) #6
  br i1 %5, label %.critedge, label %6

.critedge:                                        ; preds = %2, %4
  tail call void @llvm.memset.p0.i64(ptr align 1 %0, i8 0, i64 %1, i1 false)
  br label %6

6:                                                ; preds = %.critedge, %4
  ret void
}